ccopy_reg
_reconstructor
p1
(cxmppd.modules.db_fake
DictWatch
p2
c__builtin__
dict
p3
(dp4
S'127.0.0.1'
p5
g1
(g2
g3
(dp6
S'acc'
p7
g1
(g2
g3
(dp8
S'name'
p9
S'ACC'
p10
sS'groups'
p11
g1
(g2
g3
(dtRp12
sS'roster'
p13
g1
(g2
g3
(dtRp14
sS'anon_allow'
p15
S'yes'
p16
sS'password'
p17
S'WMJGZhde'
p18
sS'storage'
p19
g1
(g2
g3
(dtRp20
stRp21
sS'df'
p22
g1
(g2
g3
(dp23
g9
S'DF'
p24
sg11
g1
(g2
g3
(dtRp25
sg13
g1
(g2
g3
(dtRp26
sg15
g16
sg17
S'ZSNWCWOv'
p27
sg19
g1
(g2
g3
(dtRp28
stRp29
sVbroker6
p30
g1
(g2
g3
(dp31
S'name'
p32
Vbroker6
p33
sS'groups'
p34
g1
(g2
g3
(dtRp35
sS'roster'
p36
g1
(g2
g3
(dp37
Vams.127.0.0.1
p38
(dp39
S'state'
p40
S''
sS'subscription'
p41
S'to'
p42
sstRp43
sS'anon_allow'
p44
S'yes'
p45
sS'password'
p46
Vbroker6
p47
sS'storage'
p48
g1
(g2
g3
(dtRp49
stRp50
sVbroker4
p51
g1
(g2
g3
(dp52
g32
Vbroker4
p53
sg34
g1
(g2
g3
(dtRp54
sg36
g1
(g2
g3
(dp55
Vams.127.0.0.1
p56
(dp57
g40
S''
sg41
g42
sstRp58
sg44
g45
sg46
Vbroker4
p59
sg48
g1
(g2
g3
(dtRp60
stRp61
sVbroker5
p62
g1
(g2
g3
(dp63
g32
Vbroker5
p64
sg34
g1
(g2
g3
(dtRp65
sg36
g1
(g2
g3
(dp66
Vams.127.0.0.1
p67
(dp68
g40
S''
sg41
g42
sstRp69
sg44
g45
sg46
Vbroker5
p70
sg48
g1
(g2
g3
(dtRp71
stRp72
sVbroker2
p73
g1
(g2
g3
(dp74
S'name'
p75
Vbroker2
p76
sS'groups'
p77
g1
(g2
g3
(dtRp78
sS'roster'
p79
g1
(g2
g3
(dp80
Vams.127.0.0.1
p81
(dp82
g40
S''
sg41
g42
sstRp83
sS'anon_allow'
p84
S'yes'
p85
sS'password'
p86
Vbroker2
p87
sS'storage'
p88
g1
(g2
g3
(dtRp89
stRp90
sVbroker3
p91
g1
(g2
g3
(dp92
g32
Vbroker3
p93
sg34
g1
(g2
g3
(dtRp94
sg36
g1
(g2
g3
(dp95
Vams.127.0.0.1
p96
(dp97
g40
S''
sg41
g42
sstRp98
sg44
g45
sg46
Vbroker3
p99
sg48
g1
(g2
g3
(dtRp100
stRp101
sVbroker1
p102
g1
(g2
g3
(dp103
g75
Vbroker1
p104
sg77
g1
(g2
g3
(dtRp105
sg79
g1
(g2
g3
(dp106
Vams.127.0.0.1
p107
(dp108
S'state'
p109
S''
sS'subscription'
p110
S'to'
p111
sstRp112
sg84
g85
sg86
Vbroker1
p113
sg88
g1
(g2
g3
(dtRp114
stRp115
sS'ams'
p116
g1
(g2
g3
(dp117
g9
S'AMS'
p118
sg11
g1
(g2
g3
(dtRp119
sg13
g1
(g2
g3
(dp120
S'stock@127.0.0.1'
p121
(dp122
S'state'
p123
S''
sS'subscription'
p124
S'from'
p125
ssS'broker4@127.0.0.1'
p126
(dp127
g123
S''
sg124
g125
ssS'broker3@127.0.0.1'
p128
(dp129
g123
S''
sg124
g125
ssS'broker2@127.0.0.1'
p130
(dp131
g123
S''
sg124
g125
ssS'broker1@127.0.0.1'
p132
(dp133
g123
S''
sg124
g125
ssS'broker6@127.0.0.1'
p134
(dp135
g123
S''
sg124
g125
ssS'broker5@127.0.0.1'
p136
(dp137
g123
S''
sg124
g125
sstRp138
sg15
g16
sg17
S'iewVHQJJ'
p139
sg19
g1
(g2
g3
(dtRp140
stRp141
sS'__ir__'
p142
(dp143
g15
g16
sg17
S'test'
p144
sg19
(dp145
S'karma'
p146
(dp147
S'down'
p148
I307200
sS'tot_up'
p149
I0
sS'tot_down'
p150
I0
sS'up'
p151
I307200307200307200
sS'last_time'
p152
F0
sssg11
(dp153
sg13
(dp154
ssVstock
p155
g1
(g2
g3
(dp156
S'name'
p157
Vstock
p158
sS'groups'
p159
g1
(g2
g3
(dtRp160
sS'roster'
p161
g1
(g2
g3
(dp162
Vams.127.0.0.1
p163
(dp164
S'state'
p165
S''
sS'subscription'
p166
S'to'
p167
sstRp168
sS'anon_allow'
p169
S'yes'
p170
sS'password'
p171
Vstock
p172
sS'storage'
p173
g1
(g2
g3
(dtRp174
stRp175
stRp176
stRp177
.