ccopy_reg
_reconstructor
p1
(cxmppd.modules.db_fake
DictWatch
p2
c__builtin__
dict
p3
(dp4
S'127.0.0.1'
p5
g1
(g2
g3
(dp6
S'acc'
p7
g1
(g2
g3
(dp8
S'name'
p9
S'ACC'
p10
sS'groups'
p11
g1
(g2
g3
(dtRp12
sS'roster'
p13
g1
(g2
g3
(dtRp14
sS'anon_allow'
p15
S'yes'
p16
sS'password'
p17
S'WMJGZhde'
p18
sS'storage'
p19
g1
(g2
g3
(dtRp20
stRp21
sS'df'
p22
g1
(g2
g3
(dp23
g9
S'DF'
p24
sg11
g1
(g2
g3
(dtRp25
sg13
g1
(g2
g3
(dtRp26
sg15
g16
sg17
S'ZSNWCWOv'
p27
sg19
g1
(g2
g3
(dtRp28
stRp29
sS'ams'
p30
g1
(g2
g3
(dp31
g9
S'AMS'
p32
sg11
g1
(g2
g3
(dtRp33
sg13
g1
(g2
g3
(dp34
S'stock@127.0.0.1'
p35
(dp36
S'state'
p37
S''
sS'subscription'
p38
S'from'
p39
sstRp40
sg15
g16
sg17
S'iewVHQJJ'
p41
sg19
g1
(g2
g3
(dtRp42
stRp43
sS'__ir__'
p44
(dp45
g15
g16
sg17
S'test'
p46
sg19
(dp47
S'karma'
p48
(dp49
S'down'
p50
I307200
sS'tot_up'
p51
I0
sS'tot_down'
p52
I0
sS'up'
p53
I307200307200307200
sS'last_time'
p54
F0
sssg11
(dp55
sg13
(dp56
ssVstock
p57
g1
(g2
g3
(dp58
S'name'
p59
Vstock
p60
sS'groups'
p61
g1
(g2
g3
(dtRp62
sS'roster'
p63
g1
(g2
g3
(dp64
Vams.127.0.0.1
p65
(dp66
S'state'
p67
S''
sS'subscription'
p68
S'to'
p69
sstRp70
sS'anon_allow'
p71
S'yes'
p72
sS'password'
p73
Vstock
p74
sS'storage'
p75
g1
(g2
g3
(dtRp76
stRp77
stRp78
stRp79
.